target datalayout = "e-m:e-p270:32:32-p271:32:32-p272:64:64-i64:64-i128:128-f80:128-n8:16:32:64-S128"
target triple = "x86_64-pc-linux-gnu"

%union.EX_STYPE = type { ptr }
%struct.Exnode_s = type { i64, i64, i8, %union.anon, %union.Exdata_u, i32 }
%union.anon = type { ptr }
%union.Exdata_u = type { %struct.anon.2 }
%struct.anon.2 = type { ptr, ptr, ptr, ptr }
%struct.Expr_s = type { ptr, ptr, [10 x ptr], ptr, ptr, ptr, ptr, ptr, ptr, %struct.agxbuf, %union.EX_STYPE, %struct.Exid_s, [512 x i8], ptr, i32, i32, i32, i64, i64, i32 }
%struct.agxbuf = type { %union.anon.10 }
%union.anon.10 = type { %struct.anon.11 }
%struct.anon.11 = type { ptr, i64, i64, [7 x i8], i8 }
%struct.Exid_s = type { %struct.dtlink_s_, i64, i64, i64, i64, ptr, ptr, [32 x i8] }
%struct.dtlink_s_ = type { ptr, %union.anon.12 }
%union.anon.12 = type { ptr }
%struct.Exassoc_t = type { %struct.dtlink_s_, %union.EX_STYPE, %union.EX_STYPE, [1 x i8] }
%struct.dt_s_ = type { ptr, ptr, %struct.Dtdata_t, ptr, i32, ptr, ptr, ptr }
%struct.Dtdata_t = type { i32, ptr, %union.anon.13, i32, i32, i32 }
%union.anon.13 = type { ptr }
%struct.anon.5 = type { ptr, ptr, ptr }

@.str.21 = private unnamed_addr constant [4 x i8] c" \09\0A\00", align 1
@.str.23 = private unnamed_addr constant [21 x i8] c"out of space [assoc]\00", align 1

; Function Attrs: nounwind uwtable
define internal void @addItem(ptr noundef %0, ptr noundef %1, ptr %2, ptr noundef %3) #0 {
  %5 = alloca %union.EX_STYPE, align 8
  %6 = alloca ptr, align 8
  %7 = alloca ptr, align 8
  %8 = alloca ptr, align 8
  %9 = alloca ptr, align 8
  %10 = alloca %struct.Exassoc_t, align 8
  %11 = getelementptr inbounds nuw %union.EX_STYPE, ptr %5, i32 0, i32 0
  store ptr %2, ptr %11, align 8
  store ptr %0, ptr %6, align 8, !tbaa !3
  store ptr %1, ptr %7, align 8, !tbaa !84
  store ptr %3, ptr %8, align 8, !tbaa !42
  call void @llvm.lifetime.start.p0(i64 8, ptr %9) #15
  %12 = load ptr, ptr %7, align 8, !tbaa !84
  %13 = getelementptr inbounds nuw %struct.dt_s_, ptr %12, i32 0, i32 0
  %14 = load ptr, ptr %13, align 8, !tbaa !61
  %15 = load ptr, ptr %7, align 8, !tbaa !84
  %16 = call ptr %14(ptr noundef %15, ptr noundef %5, i32 noundef 512)
  store ptr %16, ptr %9, align 8, !tbaa !10
  %17 = icmp ne ptr %16, null
  br i1 %17, label %35, label %18

18:                                               ; preds = %4
  %19 = load ptr, ptr %6, align 8, !tbaa !3
  %20 = getelementptr inbounds nuw %struct.Expr_s, ptr %19, i32 0, i32 3
  %21 = load ptr, ptr %20, align 8, !tbaa !40
  %22 = call ptr @vmalloc(ptr noundef %21, i64 noundef 40)
  store ptr %22, ptr %9, align 8, !tbaa !10
  %23 = icmp ne ptr %22, null
  br i1 %23, label %25, label %24

24:                                               ; preds = %18
  call void (ptr, ...) @exerror(ptr noundef @.str.23)
  br label %25

25:                                               ; preds = %24, %18
  %26 = load ptr, ptr %9, align 8, !tbaa !10
  call void @llvm.memset.p0.i64(ptr align 8 %10, i8 0, i64 40, i1 false)
  call void @llvm.memcpy.p0.p0.i64(ptr align 8 %26, ptr align 8 %10, i64 40, i1 false), !tbaa.struct !81
  %27 = load ptr, ptr %9, align 8, !tbaa !10
  %28 = getelementptr inbounds nuw %struct.Exassoc_t, ptr %27, i32 0, i32 1
  call void @llvm.memcpy.p0.p0.i64(ptr align 8 %28, ptr align 8 %5, i64 8, i1 false), !tbaa.struct !34
  %29 = load ptr, ptr %7, align 8, !tbaa !84
  %30 = getelementptr inbounds nuw %struct.dt_s_, ptr %29, i32 0, i32 0
  %31 = load ptr, ptr %30, align 8, !tbaa !61
  %32 = load ptr, ptr %7, align 8, !tbaa !84
  %33 = load ptr, ptr %9, align 8, !tbaa !10
  %34 = call ptr %31(ptr noundef %32, ptr noundef %33, i32 noundef 1)
  br label %35

35:                                               ; preds = %25, %4
  %36 = load ptr, ptr %8, align 8, !tbaa !42
  %37 = load ptr, ptr %9, align 8, !tbaa !10
  %38 = getelementptr inbounds nuw %struct.Exassoc_t, ptr %37, i32 0, i32 2
  store ptr %36, ptr %38, align 8, !tbaa !11
  call void @llvm.lifetime.end.p0(i64 8, ptr %9) #15
  ret void
}

; Function Attrs: nounwind uwtable
define internal ptr @extokens(ptr noundef %0, ptr noundef %1, ptr noundef %2) #0 {
  %4 = alloca %union.EX_STYPE, align 8
  %5 = alloca ptr, align 8
  %6 = alloca ptr, align 8
  %7 = alloca ptr, align 8
  %8 = alloca ptr, align 8
  %9 = alloca ptr, align 8
  %10 = alloca ptr, align 8
  %11 = alloca i64, align 8
  %12 = alloca ptr, align 8
  %13 = alloca %union.EX_STYPE, align 8
  %14 = alloca %union.EX_STYPE, align 8
  store ptr %0, ptr %5, align 8, !tbaa !3
  store ptr %1, ptr %6, align 8, !tbaa !8
  store ptr %2, ptr %7, align 8, !tbaa !10
  call void @llvm.lifetime.start.p0(i64 8, ptr %8) #15
  call void @llvm.lifetime.start.p0(i64 8, ptr %9) #15
  call void @llvm.lifetime.start.p0(i64 8, ptr %10) #15
  call void @llvm.lifetime.start.p0(i64 8, ptr %11) #15
  call void @llvm.lifetime.start.p0(i64 8, ptr %12) #15
  %15 = load ptr, ptr %6, align 8, !tbaa !8
  %16 = getelementptr inbounds nuw %struct.Exnode_s, ptr %15, i32 0, i32 4
  %17 = getelementptr inbounds nuw %struct.anon.5, ptr %16, i32 0, i32 0
  %18 = load ptr, ptr %17, align 8, !tbaa !11
  %19 = getelementptr inbounds nuw %struct.Exid_s, ptr %18, i32 0, i32 6
  %20 = load ptr, ptr %19, align 8, !tbaa !60
  store ptr %20, ptr %12, align 8, !tbaa !84
  %21 = load ptr, ptr %5, align 8, !tbaa !3
  %22 = load ptr, ptr %6, align 8, !tbaa !8
  %23 = getelementptr inbounds nuw %struct.Exnode_s, ptr %22, i32 0, i32 4
  %24 = getelementptr inbounds nuw %struct.anon.5, ptr %23, i32 0, i32 1
  %25 = load ptr, ptr %24, align 8, !tbaa !11
  %26 = load ptr, ptr %7, align 8, !tbaa !10
  %27 = call ptr @eval(ptr noundef %21, ptr noundef %25, ptr noundef %26)
  %28 = getelementptr inbounds nuw %union.EX_STYPE, ptr %13, i32 0, i32 0
  store ptr %27, ptr %28, align 8
  %29 = load ptr, ptr %13, align 8, !tbaa !11
  store ptr %29, ptr %8, align 8, !tbaa !42
  %30 = load ptr, ptr %6, align 8, !tbaa !8
  %31 = getelementptr inbounds nuw %struct.Exnode_s, ptr %30, i32 0, i32 4
  %32 = getelementptr inbounds nuw %struct.anon.5, ptr %31, i32 0, i32 2
  %33 = load ptr, ptr %32, align 8, !tbaa !11
  %34 = icmp ne ptr %33, null
  br i1 %34, label %35, label %45

35:                                               ; preds = %3
  %36 = load ptr, ptr %5, align 8, !tbaa !3
  %37 = load ptr, ptr %6, align 8, !tbaa !8
  %38 = getelementptr inbounds nuw %struct.Exnode_s, ptr %37, i32 0, i32 4
  %39 = getelementptr inbounds nuw %struct.anon.5, ptr %38, i32 0, i32 2
  %40 = load ptr, ptr %39, align 8, !tbaa !11
  %41 = load ptr, ptr %7, align 8, !tbaa !10
  %42 = call ptr @eval(ptr noundef %36, ptr noundef %40, ptr noundef %41)
  %43 = getelementptr inbounds nuw %union.EX_STYPE, ptr %14, i32 0, i32 0
  store ptr %42, ptr %43, align 8
  %44 = load ptr, ptr %14, align 8, !tbaa !11
  store ptr %44, ptr %9, align 8, !tbaa !42
  br label %46

45:                                               ; preds = %3
  store ptr @.str.21, ptr %9, align 8, !tbaa !42
  br label %46

46:                                               ; preds = %45, %35
  store i64 0, ptr %4, align 8, !tbaa !11
  br label %47

47:                                               ; preds = %84, %46
  %48 = load ptr, ptr %8, align 8, !tbaa !42
  %49 = load i8, ptr %48, align 1, !tbaa !11
  %50 = icmp ne i8 %49, 0
  br i1 %50, label %51, label %95

51:                                               ; preds = %47
  %52 = load ptr, ptr %8, align 8, !tbaa !42
  %53 = load ptr, ptr %9, align 8, !tbaa !42
  %54 = call i64 @strspn(ptr noundef %52, ptr noundef %53) #18
  store i64 %54, ptr %11, align 8, !tbaa !45
  %55 = load i64, ptr %11, align 8, !tbaa !45
  %56 = load ptr, ptr %8, align 8, !tbaa !42
  %57 = getelementptr inbounds nuw i8, ptr %56, i64 %55
  store ptr %57, ptr %8, align 8, !tbaa !42
  %58 = load ptr, ptr %8, align 8, !tbaa !42
  %59 = load i8, ptr %58, align 1, !tbaa !11
  %60 = sext i8 %59 to i32
  %61 = icmp eq i32 %60, 0
  br i1 %61, label %62, label %63

62:                                               ; preds = %51
  br label %95

63:                                               ; preds = %51
  %64 = load ptr, ptr %8, align 8, !tbaa !42
  %65 = load ptr, ptr %9, align 8, !tbaa !42
  %66 = call i64 @strcspn(ptr noundef %64, ptr noundef %65) #18
  store i64 %66, ptr %11, align 8, !tbaa !45
  %67 = load ptr, ptr %5, align 8, !tbaa !3
  %68 = getelementptr inbounds nuw %struct.Expr_s, ptr %67, i32 0, i32 3
  %69 = load ptr, ptr %68, align 8, !tbaa !40
  %70 = load i64, ptr %11, align 8, !tbaa !45
  %71 = add i64 %70, 1
  %72 = call ptr @vmalloc(ptr noundef %69, i64 noundef %71)
  store ptr %72, ptr %10, align 8, !tbaa !42
  %73 = load ptr, ptr %10, align 8, !tbaa !42
  %74 = icmp eq ptr %73, null
  br i1 %74, label %75, label %77

75:                                               ; preds = %63
  %76 = call ptr @exnospace()
  store ptr %76, ptr %10, align 8, !tbaa !42
  br label %84

77:                                               ; preds = %63
  %78 = load ptr, ptr %10, align 8, !tbaa !42
  %79 = load ptr, ptr %8, align 8, !tbaa !42
  %80 = load i64, ptr %11, align 8, !tbaa !45
  call void @llvm.memcpy.p0.p0.i64(ptr align 1 %78, ptr align 1 %79, i64 %80, i1 false)
  %81 = load ptr, ptr %10, align 8, !tbaa !42
  %82 = load i64, ptr %11, align 8, !tbaa !45
  %83 = getelementptr inbounds nuw i8, ptr %81, i64 %82
  store i8 0, ptr %83, align 1, !tbaa !11
  br label %84

84:                                               ; preds = %77, %75
  %85 = load ptr, ptr %5, align 8, !tbaa !3
  %86 = load ptr, ptr %12, align 8, !tbaa !84
  %87 = load ptr, ptr %10, align 8, !tbaa !42
  %88 = getelementptr inbounds nuw %union.EX_STYPE, ptr %4, i32 0, i32 0
  %89 = load ptr, ptr %88, align 8
  call void @addItem(ptr noundef %85, ptr noundef %86, ptr %89, ptr noundef %87)
  %90 = load i64, ptr %4, align 8, !tbaa !11
  %91 = add nsw i64 %90, 1
  store i64 %91, ptr %4, align 8, !tbaa !11
  %92 = load i64, ptr %11, align 8, !tbaa !45
  %93 = load ptr, ptr %8, align 8, !tbaa !42
  %94 = getelementptr inbounds nuw i8, ptr %93, i64 %92
  store ptr %94, ptr %8, align 8, !tbaa !42
  br label %47, !llvm.loop !87

95:                                               ; preds = %62, %47
  call void @llvm.lifetime.end.p0(i64 8, ptr %12) #15
  call void @llvm.lifetime.end.p0(i64 8, ptr %11) #15
  call void @llvm.lifetime.end.p0(i64 8, ptr %10) #15
  call void @llvm.lifetime.end.p0(i64 8, ptr %9) #15
  call void @llvm.lifetime.end.p0(i64 8, ptr %8) #15
  %96 = getelementptr inbounds nuw %union.EX_STYPE, ptr %4, i32 0, i32 0
  %97 = load ptr, ptr %96, align 8
  ret ptr %97
}