; Function Attrs: nounwind uwtable
define internal fastcc ptr @extokens(ptr noundef %0, ptr noundef nonnull readonly captures(none) %1, ptr noundef %2) unnamed_addr #0 {
  %4 = alloca %union.EX_STYPE, align 8
  %5 = getelementptr inbounds nuw i8, ptr %1, i64 32
  %6 = load ptr, ptr %5, align 8, !tbaa !3
  %7 = getelementptr inbounds nuw i8, ptr %6, i64 56
  %8 = load ptr, ptr %7, align 8, !tbaa !53
  %9 = getelementptr inbounds nuw i8, ptr %1, i64 40
  %10 = load ptr, ptr %9, align 8, !tbaa !3
  %11 = tail call fastcc ptr @eval(ptr noundef %0, ptr noundef %10, ptr noundef %2)
  %12 = getelementptr inbounds nuw i8, ptr %1, i64 48
  %13 = load ptr, ptr %12, align 8, !tbaa !3
  %.not = icmp eq ptr %13, null
  br i1 %.not, label %16, label %14

14:                                               ; preds = %3
  %15 = tail call fastcc ptr @eval(ptr noundef %0, ptr noundef nonnull %13, ptr noundef %2)
  br label %16

16:                                               ; preds = %3, %14
  %.031 = phi ptr [ %15, %14 ], [ @.str.21, %3 ]
  %17 = load i8, ptr %11, align 1, !tbaa !3
  %.not3536 = icmp eq i8 %17, 0
  br i1 %.not3536, label %._crit_edge, label %.lr.ph

.lr.ph:                                           ; preds = %16
  %18 = getelementptr inbounds nuw i8, ptr %0, i64 96
  br label %19

19:                                               ; preds = %.lr.ph, %addItem.exit
  %.sroa.029.038 = phi ptr [ null, %.lr.ph ], [ %49, %addItem.exit ]
  %.037 = phi ptr [ %11, %.lr.ph ], [ %50, %addItem.exit ]
  %20 = call i64 @strspn(ptr noundef nonnull %.037, ptr noundef %.031) #30
  %21 = getelementptr inbounds nuw i8, ptr %.037, i64 %20
  %22 = load i8, ptr %21, align 1, !tbaa !3
  %23 = icmp eq i8 %22, 0
  br i1 %23, label %._crit_edge, label %24

24:                                               ; preds = %19
  %25 = call i64 @strcspn(ptr noundef nonnull %21, ptr noundef %.031) #30
  %26 = load ptr, ptr %18, align 8, !tbaa !36
  %27 = add i64 %25, 1
  %28 = call ptr @vmalloc(ptr noundef %26, i64 noundef %27) #25
  %29 = icmp eq ptr %28, null
  br i1 %29, label %30, label %32

30:                                               ; preds = %24
  %31 = call ptr @exnospace() #25
  br label %34

32:                                               ; preds = %24
  call void @llvm.memcpy.p0.p0.i64(ptr nonnull align 1 %28, ptr nonnull align 1 %21, i64 %25, i1 false)
  %33 = getelementptr inbounds nuw i8, ptr %28, i64 %25
  store i8 0, ptr %33, align 1, !tbaa !3
  br label %34

34:                                               ; preds = %32, %30
  %.032 = phi ptr [ %31, %30 ], [ %28, %32 ]
  call void @llvm.lifetime.start.p0(i64 8, ptr nonnull %4)
  store ptr %.sroa.029.038, ptr %4, align 8
  %35 = load ptr, ptr %8, align 8, !tbaa !54
  %36 = call ptr %35(ptr noundef nonnull %8, ptr noundef nonnull %4, i32 noundef 512) #25
  %.not.i = icmp eq ptr %36, null
  br i1 %.not.i, label %37, label %addItem.exit

37:                                               ; preds = %34
  %38 = load ptr, ptr %18, align 8, !tbaa !36
  %39 = call ptr @vmalloc(ptr noundef %38, i64 noundef 40) #25
  %.not11.i = icmp eq ptr %39, null
  br i1 %.not11.i, label %40, label %41

40:                                               ; preds = %37
  call void (ptr, ...) @exerror(ptr noundef nonnull @.str.23) #25
  br label %41

41:                                               ; preds = %40, %37
  call void @llvm.memset.p0.i64(ptr noundef nonnull align 8 dereferenceable(40) %39, i8 0, i64 40, i1 false)
  %42 = getelementptr inbounds nuw i8, ptr %39, i64 16
  %43 = load i64, ptr %4, align 8, !tbaa !3
  store i64 %43, ptr %42, align 8, !tbaa !3
  %44 = load ptr, ptr %8, align 8, !tbaa !54
  %45 = call ptr %44(ptr noundef nonnull %8, ptr noundef nonnull %39, i32 noundef 1) #25
  br label %addItem.exit

addItem.exit:                                     ; preds = %34, %41
  %.0.i = phi ptr [ %36, %34 ], [ %39, %41 ]
  %46 = getelementptr inbounds nuw i8, ptr %.0.i, i64 24
  store ptr %.032, ptr %46, align 8, !tbaa !3
  call void @llvm.lifetime.end.p0(i64 8, ptr nonnull %4)
  %47 = ptrtoint ptr %.sroa.029.038 to i64
  %48 = add nsw i64 %47, 1
  %49 = inttoptr i64 %48 to ptr
  %50 = getelementptr inbounds nuw i8, ptr %21, i64 %25
  %51 = load i8, ptr %50, align 1, !tbaa !3
  %.not35 = icmp eq i8 %51, 0
  br i1 %.not35, label %._crit_edge, label %19, !llvm.loop !79

._crit_edge:                                      ; preds = %addItem.exit, %19, %16
  %.sroa.029.0.lcssa = phi ptr [ null, %16 ], [ %.sroa.029.038, %19 ], [ %49, %addItem.exit ]
  ret ptr %.sroa.029.0.lcssa
}